; Function Attrs: mustprogress nounwind uwtable
define dso_local void @_ZN16VariableSelector14doFinalizationEv() local_unnamed_addr #3 align 2 personality ptr @__gxx_personality_v0 {
  %1 = load ptr, ptr getelementptr inbounds (%"class.std::vector", ptr @_ZN16VariableSelector7AllVarsE, i64 0, i32 0, i32 0, i32 0, i32 1), align 8
  %2 = load ptr, ptr @_ZN16VariableSelector7AllVarsE, align 8
  %.not = icmp eq ptr %1, %2
  br i1 %.not, label %_ZNSt6vectorIP8VariableSaIS1_EE5clearEv.exit, label %.lr.ph

.lr.ph:                                           ; preds = %0, %12
  %3 = phi ptr [ %13, %12 ], [ %2, %0 ]
  %4 = phi ptr [ %14, %12 ], [ %1, %0 ]
  %.09 = phi i64 [ %15, %12 ], [ 0, %0 ]
  %5 = getelementptr inbounds ptr, ptr %3, i64 %.09
  %6 = load ptr, ptr %5, align 8
  %7 = icmp eq ptr %6, null
  br i1 %7, label %12, label %8

8:                                                ; preds = %.lr.ph
  %9 = load ptr, ptr %6, align 8
  %10 = getelementptr inbounds i8, ptr %9, i64 8
  %11 = load ptr, ptr %10, align 8
  tail call void %11(ptr noundef nonnull align 8 dereferenceable(200) %6) #19
  %.pre = load ptr, ptr getelementptr inbounds (%"class.std::vector", ptr @_ZN16VariableSelector7AllVarsE, i64 0, i32 0, i32 0, i32 0, i32 1), align 8
  %.pre13 = load ptr, ptr @_ZN16VariableSelector7AllVarsE, align 8
  br label %12

12:                                               ; preds = %.lr.ph, %8
  %13 = phi ptr [ %3, %.lr.ph ], [ %.pre13, %8 ]
  %14 = phi ptr [ %4, %.lr.ph ], [ %.pre, %8 ]
  %15 = add nuw i64 %.09, 1
  %16 = ptrtoint ptr %14 to i64
  %17 = ptrtoint ptr %13 to i64
  %18 = sub i64 %16, %17
  %19 = ashr exact i64 %18, 3
  %20 = icmp ult i64 %15, %19
  br i1 %20, label %.lr.ph, label %._crit_edge, !llvm.loop !47

._crit_edge:                                      ; preds = %12
  %.not.i.i = icmp eq ptr %14, %13
  br i1 %.not.i.i, label %_ZNSt6vectorIP8VariableSaIS1_EE5clearEv.exit, label %21

21:                                               ; preds = %._crit_edge
  store ptr %13, ptr getelementptr inbounds (%"class.std::vector", ptr @_ZN16VariableSelector7AllVarsE, i64 0, i32 0, i32 0, i32 0, i32 1), align 8
  br label %_ZNSt6vectorIP8VariableSaIS1_EE5clearEv.exit

_ZNSt6vectorIP8VariableSaIS1_EE5clearEv.exit:     ; preds = %0, %._crit_edge, %21
  %22 = load ptr, ptr @_ZN16VariableSelector10GlobalListE, align 8
  %23 = load ptr, ptr getelementptr inbounds (%"class.std::vector", ptr @_ZN16VariableSelector10GlobalListE, i64 0, i32 0, i32 0, i32 0, i32 1), align 8
  %.not.i.i4 = icmp eq ptr %23, %22
  br i1 %.not.i.i4, label %_ZNSt6vectorIP8VariableSaIS1_EE5clearEv.exit5, label %24

24:                                               ; preds = %_ZNSt6vectorIP8VariableSaIS1_EE5clearEv.exit
  store ptr %22, ptr getelementptr inbounds (%"class.std::vector", ptr @_ZN16VariableSelector10GlobalListE, i64 0, i32 0, i32 0, i32 0, i32 1), align 8
  br label %_ZNSt6vectorIP8VariableSaIS1_EE5clearEv.exit5

_ZNSt6vectorIP8VariableSaIS1_EE5clearEv.exit5:    ; preds = %_ZNSt6vectorIP8VariableSaIS1_EE5clearEv.exit, %24
  %25 = load ptr, ptr @_ZN16VariableSelector22GlobalNonvolatilesListE, align 8
  %26 = load ptr, ptr getelementptr inbounds (%"class.std::vector", ptr @_ZN16VariableSelector22GlobalNonvolatilesListE, i64 0, i32 0, i32 0, i32 0, i32 1), align 8
  %.not.i.i6 = icmp eq ptr %26, %25
  br i1 %.not.i.i6, label %_ZNSt6vectorIP8VariableSaIS1_EE5clearEv.exit7, label %27

27:                                               ; preds = %_ZNSt6vectorIP8VariableSaIS1_EE5clearEv.exit5
  store ptr %25, ptr getelementptr inbounds (%"class.std::vector", ptr @_ZN16VariableSelector22GlobalNonvolatilesListE, i64 0, i32 0, i32 0, i32 0, i32 1), align 8
  br label %_ZNSt6vectorIP8VariableSaIS1_EE5clearEv.exit7

_ZNSt6vectorIP8VariableSaIS1_EE5clearEv.exit7:    ; preds = %_ZNSt6vectorIP8VariableSaIS1_EE5clearEv.exit5, %27
  ret void
}